; Function Attrs: mustprogress nounwind uwtable
define dso_local noundef zeroext i1 @_Z13isKillAddressPKN4llvm20DbgVariableIntrinsicE(ptr noundef %0) local_unnamed_addr #0 {
  %2 = getelementptr inbounds i8, ptr %0, i64 -32
  %3 = load ptr, ptr %2, align 8, !nonnull !4, !noundef !4
  %4 = load i8, ptr %3, align 8
  %5 = icmp eq i8 %4, 0
  tail call void @llvm.assume(i1 %5)
  %6 = getelementptr inbounds nuw i8, ptr %3, i64 24
  %7 = load ptr, ptr %6, align 8
  %8 = getelementptr inbounds nuw i8, ptr %0, i64 80
  %9 = load ptr, ptr %8, align 8
  %10 = icmp eq ptr %7, %9
  tail call void @llvm.assume(i1 %10)
  %11 = getelementptr inbounds nuw i8, ptr %3, i64 36
  %12 = load i32, ptr %11, align 4
  %13 = icmp ne i32 %12, 66
  %.not6 = icmp eq ptr %0, null
  %.not = or i1 %.not6, %13
  br i1 %.not, label %16, label %14

14:                                               ; preds = %1
  %15 = tail call noundef zeroext i1 @_ZNK4llvm18DbgAssignIntrinsic13isKillAddressEv(ptr noundef nonnull align 8 dereferenceable(88) %0) #25
  br label %18

16:                                               ; preds = %1
  %17 = tail call noundef zeroext i1 @_ZNK4llvm20DbgVariableIntrinsic14isKillLocationEv(ptr noundef nonnull align 8 dereferenceable(88) %0)
  br label %18

18:                                               ; preds = %16, %14
  %.0 = phi i1 [ %15, %14 ], [ %17, %16 ]
  ret i1 %.0
}